; Function Attrs: nounwind uwtable
define void @assert_not_equal_u(i64 noundef %0, i64 noundef %1, ptr noundef %2, i32 noundef %3) local_unnamed_addr #6 {
  %5 = icmp eq i64 %0, %1
  br i1 %5, label %6, label %7

6:                                                ; preds = %4
  tail call void (ptr, ...) @CTEST_ERR(ptr noundef nonnull @.str.10, ptr noundef %2, i32 noundef %3, i64 noundef %0)
  unreachable

7:                                                ; preds = %4
  ret void
}